target datalayout = "e-m:e-p270:32:32-p271:32:32-p272:64:64-i64:64-i128:128-f80:128-n8:16:32:64-S128"
target triple = "x86_64-unknown-linux-gnu"

%"struct.ClipperLib::IntPoint" = type { i64, i64 }

@.str = private unnamed_addr constant [33 x i8] c"Coordinate outside allowed range\00", align 1
@_ZTIN10ClipperLib16clipperExceptionE = linkonce_odr hidden constant { ptr, ptr, ptr } { ptr getelementptr inbounds (ptr, ptr @_ZTVN10__cxxabiv120__si_class_type_infoE, i64 2), ptr @_ZTSN10ClipperLib16clipperExceptionE, ptr @_ZTISt9exception }, comdat, align 8

; Function Attrs: mustprogress uwtable
define hidden void @_ZN10ClipperLib9RangeTestERKNS_8IntPointERb(ptr noundef nonnull align 8 dereferenceable(16) %Pt, ptr noundef nonnull align 1 dereferenceable(1) %useFullRange) #0 personality ptr @__gxx_personality_v0 {
entry:
  %Pt.addr = alloca ptr, align 8
  %useFullRange.addr = alloca ptr, align 8
  %exn.slot = alloca ptr, align 8
  %ehselector.slot = alloca i32, align 4
  store ptr %Pt, ptr %Pt.addr, align 8
  store ptr %useFullRange, ptr %useFullRange.addr, align 8
  %0 = load ptr, ptr %useFullRange.addr, align 8
  %1 = load i8, ptr %0, align 1
  %tobool = trunc i8 %1 to i1
  br i1 %tobool, label %if.then, label %if.else

if.then:                                          ; preds = %entry
  %2 = load ptr, ptr %Pt.addr, align 8
  %X = getelementptr inbounds %"struct.ClipperLib::IntPoint", ptr %2, i32 0, i32 0
  %3 = load i64, ptr %X, align 8
  %cmp = icmp sgt i64 %3, 4611686018427387903
  br i1 %cmp, label %if.then9, label %lor.lhs.false

lor.lhs.false:                                    ; preds = %if.then
  %4 = load ptr, ptr %Pt.addr, align 8
  %Y = getelementptr inbounds %"struct.ClipperLib::IntPoint", ptr %4, i32 0, i32 1
  %5 = load i64, ptr %Y, align 8
  %cmp1 = icmp sgt i64 %5, 4611686018427387903
  br i1 %cmp1, label %if.then9, label %lor.lhs.false2

lor.lhs.false2:                                   ; preds = %lor.lhs.false
  %6 = load ptr, ptr %Pt.addr, align 8
  %X3 = getelementptr inbounds %"struct.ClipperLib::IntPoint", ptr %6, i32 0, i32 0
  %7 = load i64, ptr %X3, align 8
  %sub = sub nsw i64 0, %7
  %cmp4 = icmp sgt i64 %sub, 4611686018427387903
  br i1 %cmp4, label %if.then9, label %lor.lhs.false5

lor.lhs.false5:                                   ; preds = %lor.lhs.false2
  %8 = load ptr, ptr %Pt.addr, align 8
  %Y6 = getelementptr inbounds %"struct.ClipperLib::IntPoint", ptr %8, i32 0, i32 1
  %9 = load i64, ptr %Y6, align 8
  %sub7 = sub nsw i64 0, %9
  %cmp8 = icmp sgt i64 %sub7, 4611686018427387903
  br i1 %cmp8, label %if.then9, label %if.end

if.then9:                                         ; preds = %lor.lhs.false5, %lor.lhs.false2, %lor.lhs.false, %if.then
  %exception = call ptr @__cxa_allocate_exception(i64 40) #13
  invoke void @_ZN10ClipperLib16clipperExceptionC2EPKc(ptr noundef nonnull align 8 dereferenceable(40) %exception, ptr noundef @.str)
          to label %invoke.cont unwind label %lpad

invoke.cont:                                      ; preds = %if.then9
  call void @__cxa_throw(ptr %exception, ptr @_ZTIN10ClipperLib16clipperExceptionE, ptr @_ZN10ClipperLib16clipperExceptionD2Ev) #16
  unreachable

lpad:                                             ; preds = %if.then9
  %10 = landingpad { ptr, i32 }
          cleanup
  %11 = extractvalue { ptr, i32 } %10, 0
  store ptr %11, ptr %exn.slot, align 8
  %12 = extractvalue { ptr, i32 } %10, 1
  store i32 %12, ptr %ehselector.slot, align 4
  call void @__cxa_free_exception(ptr %exception) #13
  br label %eh.resume

if.end:                                           ; preds = %lor.lhs.false5
  br label %if.end25

if.else:                                          ; preds = %entry
  %13 = load ptr, ptr %Pt.addr, align 8
  %X10 = getelementptr inbounds %"struct.ClipperLib::IntPoint", ptr %13, i32 0, i32 0
  %14 = load i64, ptr %X10, align 8
  %cmp11 = icmp sgt i64 %14, 1073741823
  br i1 %cmp11, label %if.then23, label %lor.lhs.false12

lor.lhs.false12:                                  ; preds = %if.else
  %15 = load ptr, ptr %Pt.addr, align 8
  %Y13 = getelementptr inbounds %"struct.ClipperLib::IntPoint", ptr %15, i32 0, i32 1
  %16 = load i64, ptr %Y13, align 8
  %cmp14 = icmp sgt i64 %16, 1073741823
  br i1 %cmp14, label %if.then23, label %lor.lhs.false15

lor.lhs.false15:                                  ; preds = %lor.lhs.false12
  %17 = load ptr, ptr %Pt.addr, align 8
  %X16 = getelementptr inbounds %"struct.ClipperLib::IntPoint", ptr %17, i32 0, i32 0
  %18 = load i64, ptr %X16, align 8
  %sub17 = sub nsw i64 0, %18
  %cmp18 = icmp sgt i64 %sub17, 1073741823
  br i1 %cmp18, label %if.then23, label %lor.lhs.false19

lor.lhs.false19:                                  ; preds = %lor.lhs.false15
  %19 = load ptr, ptr %Pt.addr, align 8
  %Y20 = getelementptr inbounds %"struct.ClipperLib::IntPoint", ptr %19, i32 0, i32 1
  %20 = load i64, ptr %Y20, align 8
  %sub21 = sub nsw i64 0, %20
  %cmp22 = icmp sgt i64 %sub21, 1073741823
  br i1 %cmp22, label %if.then23, label %if.end24

if.then23:                                        ; preds = %lor.lhs.false19, %lor.lhs.false15, %lor.lhs.false12, %if.else
  %21 = load ptr, ptr %useFullRange.addr, align 8
  store i8 1, ptr %21, align 1
  %22 = load ptr, ptr %Pt.addr, align 8
  %23 = load ptr, ptr %useFullRange.addr, align 8
  call void @_ZN10ClipperLib9RangeTestERKNS_8IntPointERb(ptr noundef nonnull align 8 dereferenceable(16) %22, ptr noundef nonnull align 1 dereferenceable(1) %23)
  br label %if.end24

if.end24:                                         ; preds = %if.then23, %lor.lhs.false19
  br label %if.end25

if.end25:                                         ; preds = %if.end24, %if.end
  ret void

eh.resume:                                        ; preds = %lpad
  %exn = load ptr, ptr %exn.slot, align 8
  %sel = load i32, ptr %ehselector.slot, align 4
  %lpad.val = insertvalue { ptr, i32 } poison, ptr %exn, 0
  %lpad.val26 = insertvalue { ptr, i32 } %lpad.val, i32 %sel, 1
  resume { ptr, i32 } %lpad.val26
}