; Function Attrs: mustprogress uwtable
define hidden void @_ZN10ClipperLib9RangeTestERKNS_8IntPointERb(ptr nocapture noundef nonnull readonly align 8 dereferenceable(16) %Pt, ptr nocapture noundef nonnull align 1 dereferenceable(1) %useFullRange) local_unnamed_addr #0 personality ptr @__gxx_personality_v0 {
entry:
  %0 = load i8, ptr %useFullRange, align 1
  %1 = and i8 %0, 1
  %tobool.not17 = icmp eq i8 %1, 0
  br i1 %tobool.not17, label %if.else.lr.ph, label %if.then

if.else.lr.ph:                                    ; preds = %entry
  %2 = load i64, ptr %Pt, align 8
  %cmp11 = icmp sgt i64 %2, 1073741823
  br i1 %cmp11, label %if.then23, label %lor.lhs.false12

if.then:                                          ; preds = %if.then23, %entry
  %3 = load i64, ptr %Pt, align 8
  %cmp = icmp sgt i64 %3, 4611686018427387903
  br i1 %cmp, label %if.then9, label %lor.lhs.false

lor.lhs.false:                                    ; preds = %if.then
  %Y = getelementptr inbounds i8, ptr %Pt, i64 8
  %4 = load i64, ptr %Y, align 8
  %cmp4 = icmp slt i64 %3, -4611686018427387903
  %5 = add i64 %4, -4611686018427387904
  %6 = icmp ult i64 %5, -9223372036854775807
  %or.cond14 = or i1 %cmp4, %6
  br i1 %or.cond14, label %if.then9, label %if.end25

if.then9:                                         ; preds = %lor.lhs.false, %if.then
  %exception = tail call ptr @__cxa_allocate_exception(i64 40) #28
  invoke void @_ZN10ClipperLib16clipperExceptionC2EPKc(ptr noundef nonnull align 8 dereferenceable(40) %exception, ptr noundef nonnull @.str)
          to label %invoke.cont unwind label %lpad

invoke.cont:                                      ; preds = %if.then9
  tail call void @__cxa_throw(ptr nonnull %exception, ptr nonnull @_ZTIN10ClipperLib16clipperExceptionE, ptr nonnull @_ZN10ClipperLib16clipperExceptionD2Ev) #29
  unreachable

lpad:                                             ; preds = %if.then9
  %7 = landingpad { ptr, i32 }
          cleanup
  tail call void @__cxa_free_exception(ptr %exception) #28
  resume { ptr, i32 } %7

lor.lhs.false12:                                  ; preds = %if.else.lr.ph
  %Y13 = getelementptr inbounds i8, ptr %Pt, i64 8
  %8 = load i64, ptr %Y13, align 8
  %cmp18 = icmp slt i64 %2, -1073741823
  %9 = add i64 %8, -1073741824
  %10 = icmp ult i64 %9, -2147483647
  %or.cond16 = or i1 %cmp18, %10
  br i1 %or.cond16, label %if.then23, label %if.end25

if.then23:                                        ; preds = %lor.lhs.false12, %if.else.lr.ph
  store i8 1, ptr %useFullRange, align 1
  br label %if.then

if.end25:                                         ; preds = %lor.lhs.false12, %lor.lhs.false
  ret void
}